; Function Attrs: nounwind uwtable
define dso_local noundef i64 @jsonpath_in(ptr noundef readonly captures(none) %0) local_unnamed_addr #0 {
  %2 = getelementptr inbounds nuw i8, ptr %0, i64 32
  %3 = load i64, ptr %2, align 8
  %4 = inttoptr i64 %3 to ptr
  %5 = tail call i64 @strlen(ptr noundef nonnull dereferenceable(1) %4) #12
  %6 = trunc i64 %5 to i32
  %7 = getelementptr inbounds nuw i8, ptr %0, i64 8
  %8 = load ptr, ptr %7, align 8
  %9 = tail call fastcc i64 @jsonPathFromCstring(ptr noundef nonnull %4, i32 noundef %6, ptr noundef %8)
  ret i64 %9
}